; Function Attrs: nounwind uwtable
define ptr @l_Lake_NConfigDecl_leanLibConfig_x3f___rarg(ptr noundef readonly captures(none) %0) local_unnamed_addr #0 {
  %2 = getelementptr inbounds nuw i8, ptr %0, i64 24
  %3 = load ptr, ptr %2, align 8, !tbaa !4
  %4 = load ptr, ptr @l_Lake_ConfigDecl_leanLibConfig_x3f___closed__2, align 8, !tbaa !4
  %5 = tail call zeroext i8 @lean_name_eq(ptr noundef %3, ptr noundef %4) #5
  %6 = icmp eq i8 %5, 0
  br i1 %6, label %23, label %7

7:                                                ; preds = %1
  %8 = getelementptr inbounds nuw i8, ptr %0, i64 32
  %9 = load ptr, ptr %8, align 8, !tbaa !4
  %10 = ptrtoint ptr %9 to i64
  %11 = and i64 %10, 1
  %.not = icmp eq i64 %11, 0
  br i1 %.not, label %12, label %lean_inc.exit

12:                                               ; preds = %7
  %.val.i = load i32, ptr %9, align 4, !tbaa !8
  %13 = icmp sgt i32 %.val.i, 0
  br i1 %13, label %14, label %16, !prof !11

14:                                               ; preds = %12
  %15 = add nuw i32 %.val.i, 1
  store i32 %15, ptr %9, align 4, !tbaa !8
  br label %lean_inc.exit

16:                                               ; preds = %12
  %.not.i = icmp eq i32 %.val.i, 0
  br i1 %.not.i, label %lean_inc.exit, label %17

17:                                               ; preds = %16
  tail call void @lean_inc_ref_cold(ptr noundef nonnull %9) #5
  br label %lean_inc.exit

lean_inc.exit:                                    ; preds = %17, %16, %14, %7
  tail call void @lean_inc_heartbeat() #5
  %18 = tail call noalias ptr @mi_malloc_small(i64 noundef 16) #5
  %19 = icmp eq ptr %18, null
  br i1 %19, label %20, label %lean_alloc_ctor.exit

20:                                               ; preds = %lean_inc.exit
  tail call void @lean_internal_panic_out_of_memory() #6
  unreachable

lean_alloc_ctor.exit:                             ; preds = %lean_inc.exit
  %21 = getelementptr inbounds nuw i8, ptr %18, i64 4
  store i32 1, ptr %18, align 4, !tbaa !8
  store i32 16842768, ptr %21, align 4
  %22 = getelementptr inbounds nuw i8, ptr %18, i64 8
  store ptr %9, ptr %22, align 8, !tbaa !4
  br label %23

23:                                               ; preds = %1, %lean_alloc_ctor.exit
  %.0 = phi ptr [ %18, %lean_alloc_ctor.exit ], [ inttoptr (i64 1 to ptr), %1 ]
  ret ptr %.0
}